; Function Attrs: nounwind uwtable
define noalias nonnull ptr @l_List_forM___at_Lean_CollectAxioms_collect___spec__2(ptr noundef %0, ptr noundef %1, ptr noundef %2) local_unnamed_addr #0 {
  %4 = ptrtoint ptr %1 to i64
  %5 = and i64 %4, 1
  %.not45 = icmp eq i64 %5, 0
  br label %lean_dec.exit

lean_dec.exit:                                    ; preds = %lean_dec.exit.backedge, %3
  %.021 = phi ptr [ %2, %3 ], [ %65, %lean_dec.exit.backedge ]
  %.0 = phi ptr [ %0, %3 ], [ %41, %lean_dec.exit.backedge ]
  %6 = ptrtoint ptr %.0 to i64
  %7 = and i64 %6, 1
  %.not.i31 = icmp eq i64 %7, 0
  br i1 %.not.i31, label %11, label %8

8:                                                ; preds = %lean_dec.exit
  %9 = lshr i64 %6, 1
  %10 = trunc i64 %9 to i32
  br label %lean_obj_tag.exit

11:                                               ; preds = %lean_dec.exit
  %12 = getelementptr i8, ptr %.0, i64 4
  %.val.i = load i32, ptr %12, align 4
  %13 = lshr i32 %.val.i, 24
  br label %lean_obj_tag.exit

lean_obj_tag.exit:                                ; preds = %8, %11
  %.0.i = phi i32 [ %10, %8 ], [ %13, %11 ]
  %14 = icmp eq i32 %.0.i, 0
  br i1 %14, label %15, label %29

15:                                               ; preds = %lean_obj_tag.exit
  br i1 %.not45, label %16, label %lean_dec.exit23

16:                                               ; preds = %15
  %17 = load i32, ptr %1, align 4, !tbaa !4
  %18 = icmp sgt i32 %17, 1
  br i1 %18, label %19, label %21, !prof !9

19:                                               ; preds = %16
  %20 = add nsw i32 %17, -1
  store i32 %20, ptr %1, align 4, !tbaa !4
  br label %lean_dec.exit23

21:                                               ; preds = %16
  %.not.i = icmp eq i32 %17, 0
  br i1 %.not.i, label %lean_dec.exit23, label %22

22:                                               ; preds = %21
  tail call void @lean_dec_ref_cold(ptr noundef nonnull %1) #4
  br label %lean_dec.exit23

lean_dec.exit23:                                  ; preds = %22, %21, %19, %15
  tail call void @lean_inc_heartbeat() #4
  %23 = tail call noalias ptr @mi_malloc_small(i64 noundef 24) #4
  %24 = icmp eq ptr %23, null
  br i1 %24, label %25, label %lean_alloc_ctor.exit

25:                                               ; preds = %lean_dec.exit23
  tail call void @lean_internal_panic_out_of_memory() #5
  unreachable

lean_alloc_ctor.exit:                             ; preds = %lean_dec.exit23
  %26 = getelementptr inbounds nuw i8, ptr %23, i64 4
  store i32 1, ptr %23, align 4, !tbaa !4
  store i32 131096, ptr %26, align 4
  %27 = getelementptr inbounds nuw i8, ptr %23, i64 8
  store ptr inttoptr (i64 1 to ptr), ptr %27, align 8, !tbaa !10
  %28 = getelementptr inbounds nuw i8, ptr %23, i64 16
  store ptr %.021, ptr %28, align 8, !tbaa !10
  ret ptr %23

29:                                               ; preds = %lean_obj_tag.exit
  %30 = getelementptr inbounds nuw i8, ptr %.0, i64 8
  %31 = load ptr, ptr %30, align 8, !tbaa !10
  %32 = ptrtoint ptr %31 to i64
  %33 = and i64 %32, 1
  %.not = icmp eq i64 %33, 0
  br i1 %.not, label %34, label %lean_inc.exit26

34:                                               ; preds = %29
  %.val.i32 = load i32, ptr %31, align 4, !tbaa !4
  %35 = icmp sgt i32 %.val.i32, 0
  br i1 %35, label %36, label %38, !prof !9

36:                                               ; preds = %34
  %37 = add nuw i32 %.val.i32, 1
  store i32 %37, ptr %31, align 4, !tbaa !4
  br label %lean_inc.exit26

38:                                               ; preds = %34
  %.not.i33 = icmp eq i32 %.val.i32, 0
  br i1 %.not.i33, label %lean_inc.exit26, label %39

39:                                               ; preds = %38
  tail call void @lean_inc_ref_cold(ptr noundef nonnull %31) #4
  br label %lean_inc.exit26

lean_inc.exit26:                                  ; preds = %39, %38, %36, %29
  %40 = getelementptr inbounds nuw i8, ptr %.0, i64 16
  %41 = load ptr, ptr %40, align 8, !tbaa !10
  %42 = ptrtoint ptr %41 to i64
  %43 = and i64 %42, 1
  %.not43 = icmp eq i64 %43, 0
  br i1 %.not43, label %44, label %lean_inc.exit25

44:                                               ; preds = %lean_inc.exit26
  %.val.i34 = load i32, ptr %41, align 4, !tbaa !4
  %45 = icmp sgt i32 %.val.i34, 0
  br i1 %45, label %46, label %48, !prof !9

46:                                               ; preds = %44
  %47 = add nuw i32 %.val.i34, 1
  store i32 %47, ptr %41, align 4, !tbaa !4
  br label %lean_inc.exit25

48:                                               ; preds = %44
  %.not.i35 = icmp eq i32 %.val.i34, 0
  br i1 %.not.i35, label %lean_inc.exit25, label %49

49:                                               ; preds = %48
  tail call void @lean_inc_ref_cold(ptr noundef nonnull %41) #4
  br label %lean_inc.exit25

lean_inc.exit25:                                  ; preds = %49, %48, %46, %lean_inc.exit26
  br i1 %.not.i31, label %50, label %lean_dec.exit22

50:                                               ; preds = %lean_inc.exit25
  %51 = load i32, ptr %.0, align 4, !tbaa !4
  %52 = icmp sgt i32 %51, 1
  br i1 %52, label %53, label %55, !prof !9

53:                                               ; preds = %50
  %54 = add nsw i32 %51, -1
  store i32 %54, ptr %.0, align 4, !tbaa !4
  br label %lean_dec.exit22

55:                                               ; preds = %50
  %.not.i27 = icmp eq i32 %51, 0
  br i1 %.not.i27, label %lean_dec.exit22, label %56

56:                                               ; preds = %55
  tail call void @lean_dec_ref_cold(ptr noundef nonnull %.0) #4
  br label %lean_dec.exit22

lean_dec.exit22:                                  ; preds = %56, %55, %53, %lean_inc.exit25
  br i1 %.not45, label %57, label %lean_inc.exit24

57:                                               ; preds = %lean_dec.exit22
  %.val.i37 = load i32, ptr %1, align 4, !tbaa !4
  %58 = icmp sgt i32 %.val.i37, 0
  br i1 %58, label %59, label %61, !prof !9

59:                                               ; preds = %57
  %60 = add nuw i32 %.val.i37, 1
  store i32 %60, ptr %1, align 4, !tbaa !4
  br label %lean_inc.exit24

61:                                               ; preds = %57
  %.not.i38 = icmp eq i32 %.val.i37, 0
  br i1 %.not.i38, label %lean_inc.exit24, label %62

62:                                               ; preds = %61
  tail call void @lean_inc_ref_cold(ptr noundef nonnull %1) #4
  br label %lean_inc.exit24

lean_inc.exit24:                                  ; preds = %62, %61, %59, %lean_dec.exit22
  %63 = tail call ptr @l_Lean_CollectAxioms_collect(ptr noundef %31, ptr noundef %1, ptr noundef %.021)
  %64 = getelementptr inbounds nuw i8, ptr %63, i64 16
  %65 = load ptr, ptr %64, align 8, !tbaa !10
  %66 = ptrtoint ptr %65 to i64
  %67 = and i64 %66, 1
  %.not46 = icmp eq i64 %67, 0
  br i1 %.not46, label %68, label %lean_inc.exit

68:                                               ; preds = %lean_inc.exit24
  %.val.i40 = load i32, ptr %65, align 4, !tbaa !4
  %69 = icmp sgt i32 %.val.i40, 0
  br i1 %69, label %70, label %72, !prof !9

70:                                               ; preds = %68
  %71 = add nuw i32 %.val.i40, 1
  store i32 %71, ptr %65, align 4, !tbaa !4
  br label %lean_inc.exit

72:                                               ; preds = %68
  %.not.i41 = icmp eq i32 %.val.i40, 0
  br i1 %.not.i41, label %lean_inc.exit, label %73

73:                                               ; preds = %72
  tail call void @lean_inc_ref_cold(ptr noundef nonnull %65) #4
  br label %lean_inc.exit

lean_inc.exit:                                    ; preds = %73, %72, %70, %lean_inc.exit24
  %74 = ptrtoint ptr %63 to i64
  %75 = and i64 %74, 1
  %.not47 = icmp eq i64 %75, 0
  br i1 %.not47, label %76, label %lean_dec.exit.backedge

76:                                               ; preds = %lean_inc.exit
  %77 = load i32, ptr %63, align 4, !tbaa !4
  %78 = icmp sgt i32 %77, 1
  br i1 %78, label %79, label %81, !prof !9

79:                                               ; preds = %76
  %80 = add nsw i32 %77, -1
  store i32 %80, ptr %63, align 4, !tbaa !4
  br label %lean_dec.exit.backedge

81:                                               ; preds = %76
  %.not.i29 = icmp eq i32 %77, 0
  br i1 %.not.i29, label %lean_dec.exit.backedge, label %82

82:                                               ; preds = %81
  tail call void @lean_dec_ref_cold(ptr noundef nonnull %63) #4
  br label %lean_dec.exit.backedge

lean_dec.exit.backedge:                           ; preds = %82, %81, %79, %lean_inc.exit
  br label %lean_dec.exit
}